target datalayout = "e-m:e-p270:32:32-p271:32:32-p272:64:64-i64:64-i128:128-f80:128-n8:16:32:64-S128"
target triple = "x86_64-pc-linux-gnu"

%struct.ISeqInStream = type { ptr }
%struct.ILookInStream = type { ptr, ptr, ptr, ptr }
%struct.CSecToLook = type { %struct.ISeqInStream, ptr }

; Function Attrs: nounwind uwtable
define i32 @LookInStream_LookRead(ptr noundef %0, ptr noundef %1, ptr noundef %2) #0 {
  %4 = alloca i32, align 4
  %5 = alloca ptr, align 8
  %6 = alloca ptr, align 8
  %7 = alloca ptr, align 8
  %8 = alloca ptr, align 8
  %9 = alloca i32, align 4
  %10 = alloca i32, align 4
  store ptr %0, ptr %5, align 8, !tbaa !3
  store ptr %1, ptr %6, align 8, !tbaa !3
  store ptr %2, ptr %7, align 8, !tbaa !19
  call void @llvm.lifetime.start.p0(i64 8, ptr %8) #3
  %11 = load ptr, ptr %7, align 8, !tbaa !19
  %12 = load i64, ptr %11, align 8, !tbaa !7
  %13 = icmp eq i64 %12, 0
  br i1 %13, label %14, label %15

14:                                               ; preds = %3
  store i32 0, ptr %4, align 4
  store i32 1, ptr %9, align 4
  br label %41

15:                                               ; preds = %3
  call void @llvm.lifetime.start.p0(i64 4, ptr %10) #3
  %16 = load ptr, ptr %5, align 8, !tbaa !3
  %17 = getelementptr inbounds nuw %struct.ILookInStream, ptr %16, i32 0, i32 0
  %18 = load ptr, ptr %17, align 8, !tbaa !21
  %19 = load ptr, ptr %5, align 8, !tbaa !3
  %20 = load ptr, ptr %7, align 8, !tbaa !19
  %21 = call i32 %18(ptr noundef %19, ptr noundef %8, ptr noundef %20)
  store i32 %21, ptr %10, align 4, !tbaa !9
  %22 = load i32, ptr %10, align 4, !tbaa !9
  %23 = icmp ne i32 %22, 0
  br i1 %23, label %24, label %26

24:                                               ; preds = %15
  %25 = load i32, ptr %10, align 4, !tbaa !9
  store i32 %25, ptr %4, align 4
  store i32 1, ptr %9, align 4
  br label %27

26:                                               ; preds = %15
  store i32 0, ptr %9, align 4
  br label %27

27:                                               ; preds = %26, %24
  call void @llvm.lifetime.end.p0(i64 4, ptr %10) #3
  %28 = load i32, ptr %9, align 4
  switch i32 %28, label %41 [
    i32 0, label %29
  ]

29:                                               ; preds = %27
  %30 = load ptr, ptr %6, align 8, !tbaa !3
  %31 = load ptr, ptr %8, align 8, !tbaa !3
  %32 = load ptr, ptr %7, align 8, !tbaa !19
  %33 = load i64, ptr %32, align 8, !tbaa !7
  call void @llvm.memcpy.p0.p0.i64(ptr align 1 %30, ptr align 1 %31, i64 %33, i1 false)
  %34 = load ptr, ptr %5, align 8, !tbaa !3
  %35 = getelementptr inbounds nuw %struct.ILookInStream, ptr %34, i32 0, i32 1
  %36 = load ptr, ptr %35, align 8, !tbaa !22
  %37 = load ptr, ptr %5, align 8, !tbaa !3
  %38 = load ptr, ptr %7, align 8, !tbaa !19
  %39 = load i64, ptr %38, align 8, !tbaa !7
  %40 = call i32 %36(ptr noundef %37, i64 noundef %39)
  store i32 %40, ptr %4, align 4
  store i32 1, ptr %9, align 4
  br label %41

41:                                               ; preds = %29, %27, %14
  call void @llvm.lifetime.end.p0(i64 8, ptr %8) #3
  %42 = load i32, ptr %4, align 4
  ret i32 %42
}

; Function Attrs: nounwind uwtable
define internal i32 @SecToLook_Read(ptr noundef %0, ptr noundef %1, ptr noundef %2) #0 {
  %4 = alloca ptr, align 8
  %5 = alloca ptr, align 8
  %6 = alloca ptr, align 8
  %7 = alloca ptr, align 8
  store ptr %0, ptr %4, align 8, !tbaa !3
  store ptr %1, ptr %5, align 8, !tbaa !3
  store ptr %2, ptr %6, align 8, !tbaa !19
  call void @llvm.lifetime.start.p0(i64 8, ptr %7) #3
  %8 = load ptr, ptr %4, align 8, !tbaa !3
  store ptr %8, ptr %7, align 8, !tbaa !3
  %9 = load ptr, ptr %7, align 8, !tbaa !3
  %10 = getelementptr inbounds nuw %struct.CSecToLook, ptr %9, i32 0, i32 1
  %11 = load ptr, ptr %10, align 8, !tbaa !39
  %12 = load ptr, ptr %5, align 8, !tbaa !3
  %13 = load ptr, ptr %6, align 8, !tbaa !19
  %14 = call i32 @LookInStream_LookRead(ptr noundef %11, ptr noundef %12, ptr noundef %13)
  call void @llvm.lifetime.end.p0(i64 8, ptr %7) #3
  ret i32 %14
}