; Function Attrs: nounwind uwtable
define internal i32 @SecToLook_Read(ptr noundef readonly captures(none) %0, ptr noundef writeonly captures(none) %1, ptr noundef %2) #0 {
  %4 = alloca ptr, align 8
  %5 = getelementptr inbounds nuw i8, ptr %0, i64 8
  %6 = load ptr, ptr %5, align 8, !tbaa !31
  call void @llvm.lifetime.start.p0(i64 8, ptr nonnull %4) #7
  %7 = load i64, ptr %2, align 8, !tbaa !3
  %8 = icmp eq i64 %7, 0
  br i1 %8, label %LookInStream_LookRead.exit, label %9

9:                                                ; preds = %3
  %10 = load ptr, ptr %6, align 8, !tbaa !14
  %11 = call i32 %10(ptr noundef nonnull %6, ptr noundef nonnull %4, ptr noundef nonnull %2) #7
  %.not.i = icmp eq i32 %11, 0
  br i1 %.not.i, label %12, label %LookInStream_LookRead.exit

12:                                               ; preds = %9
  %13 = load ptr, ptr %4, align 8, !tbaa !15
  %14 = load i64, ptr %2, align 8, !tbaa !3
  call void @llvm.memcpy.p0.p0.i64(ptr align 1 %1, ptr align 1 %13, i64 %14, i1 false)
  %15 = getelementptr inbounds nuw i8, ptr %6, i64 8
  %16 = load ptr, ptr %15, align 8, !tbaa !16
  %17 = load i64, ptr %2, align 8, !tbaa !3
  %18 = call i32 %16(ptr noundef nonnull %6, i64 noundef %17) #7
  br label %LookInStream_LookRead.exit

LookInStream_LookRead.exit:                       ; preds = %3, %9, %12
  %.0.i = phi i32 [ %18, %12 ], [ %11, %9 ], [ 0, %3 ]
  call void @llvm.lifetime.end.p0(i64 8, ptr nonnull %4) #7
  ret i32 %.0.i
}